target datalayout = "e-m:e-p270:32:32-p271:32:32-p272:64:64-i64:64-i128:128-f80:128-n8:16:32:64-S128"
target triple = "x86_64-pc-linux-gnu"

%struct._mod = type { i32, %union.anon.806 }
%union.anon.806 = type { %struct.anon.807 }
%struct.anon.807 = type { ptr, ptr }

; Function Attrs: nounwind uwtable
define internal ptr @compiler_mod(ptr noundef %0, ptr noundef %1) #0 {
  %3 = alloca ptr, align 8
  %4 = alloca ptr, align 8
  %5 = alloca ptr, align 8
  %6 = alloca i32, align 4
  store ptr %0, ptr %3, align 8, !tbaa !4
  store ptr %1, ptr %4, align 8, !tbaa !125
  call void @llvm.lifetime.start.p0(i64 8, ptr %5) #8
  store ptr null, ptr %5, align 8, !tbaa !99
  call void @llvm.lifetime.start.p0(i64 4, ptr %6) #8
  %7 = load ptr, ptr %4, align 8, !tbaa !125
  %8 = getelementptr inbounds nuw %struct._mod, ptr %7, i32 0, i32 0
  %9 = load i32, ptr %8, align 8, !tbaa !129
  %10 = icmp ne i32 %9, 3
  %11 = zext i1 %10 to i32
  store i32 %11, ptr %6, align 4, !tbaa !50
  %12 = load ptr, ptr %3, align 8, !tbaa !4
  %13 = load ptr, ptr %4, align 8, !tbaa !125
  %14 = call i32 @compiler_codegen(ptr noundef %12, ptr noundef %13)
  %15 = icmp slt i32 %14, 0
  br i1 %15, label %16, label %17

16:                                               ; preds = %2
  br label %21

17:                                               ; preds = %2
  %18 = load ptr, ptr %3, align 8, !tbaa !4
  %19 = load i32, ptr %6, align 4, !tbaa !50
  %20 = call ptr @_PyCompile_OptimizeAndAssemble(ptr noundef %18, i32 noundef %19)
  store ptr %20, ptr %5, align 8, !tbaa !99
  br label %21

21:                                               ; preds = %17, %16
  %22 = load ptr, ptr %3, align 8, !tbaa !4
  call void @_PyCompile_ExitScope(ptr noundef %22)
  %23 = load ptr, ptr %5, align 8, !tbaa !99
  call void @llvm.lifetime.end.p0(i64 4, ptr %6) #8
  call void @llvm.lifetime.end.p0(i64 8, ptr %5) #8
  ret ptr %23
}

; Function Attrs: nounwind uwtable
define dso_local ptr @_PyAST_Compile(ptr noundef %0, ptr noundef %1, ptr noundef %2, i32 noundef %3, ptr noundef %4) #0 {
  %6 = alloca ptr, align 8
  %7 = alloca ptr, align 8
  %8 = alloca ptr, align 8
  %9 = alloca ptr, align 8
  %10 = alloca i32, align 4
  %11 = alloca ptr, align 8
  %12 = alloca ptr, align 8
  %13 = alloca i32, align 4
  %14 = alloca ptr, align 8
  store ptr %0, ptr %7, align 8, !tbaa !125
  store ptr %1, ptr %8, align 8, !tbaa !32
  store ptr %2, ptr %9, align 8, !tbaa !42
  store i32 %3, ptr %10, align 4, !tbaa !50
  store ptr %4, ptr %11, align 8, !tbaa !127
  call void @llvm.lifetime.start.p0(i64 8, ptr %12) #8
  %15 = load ptr, ptr %7, align 8, !tbaa !125
  %16 = load ptr, ptr %8, align 8, !tbaa !32
  %17 = load ptr, ptr %9, align 8, !tbaa !42
  %18 = load i32, ptr %10, align 4, !tbaa !50
  %19 = load ptr, ptr %11, align 8, !tbaa !127
  %20 = call ptr @new_compiler(ptr noundef %15, ptr noundef %16, ptr noundef %17, i32 noundef %18, ptr noundef %19)
  store ptr %20, ptr %12, align 8, !tbaa !4
  %21 = load ptr, ptr %12, align 8, !tbaa !4
  %22 = icmp eq ptr %21, null
  br i1 %22, label %23, label %24

23:                                               ; preds = %5
  store ptr null, ptr %6, align 8
  store i32 1, ptr %13, align 4
  br label %30

24:                                               ; preds = %5
  call void @llvm.lifetime.start.p0(i64 8, ptr %14) #8
  %25 = load ptr, ptr %12, align 8, !tbaa !4
  %26 = load ptr, ptr %7, align 8, !tbaa !125
  %27 = call ptr @compiler_mod(ptr noundef %25, ptr noundef %26)
  store ptr %27, ptr %14, align 8, !tbaa !99
  %28 = load ptr, ptr %12, align 8, !tbaa !4
  call void @compiler_free(ptr noundef %28)
  %29 = load ptr, ptr %14, align 8, !tbaa !99
  store ptr %29, ptr %6, align 8
  store i32 1, ptr %13, align 4
  call void @llvm.lifetime.end.p0(i64 8, ptr %14) #8
  br label %30

30:                                               ; preds = %24, %23
  call void @llvm.lifetime.end.p0(i64 8, ptr %12) #8
  %31 = load ptr, ptr %6, align 8
  ret ptr %31
}