; Function Attrs: nounwind uwtable
define dso_local ptr @_PyAST_Compile(ptr noundef %0, ptr noundef %1, ptr noundef %2, i32 noundef %3, ptr noundef %4) local_unnamed_addr #0 {
  %6 = tail call fastcc ptr @new_compiler(ptr noundef %0, ptr noundef %1, ptr noundef %2, i32 noundef %3, ptr noundef %4)
  %7 = icmp eq ptr %6, null
  br i1 %7, label %16, label %8

8:                                                ; preds = %5
  %9 = load i32, ptr %0, align 8, !tbaa !97
  %10 = tail call fastcc i32 @compiler_codegen(ptr noundef nonnull %6, ptr noundef nonnull %0)
  %11 = icmp slt i32 %10, 0
  br i1 %11, label %compiler_mod.exit, label %12

12:                                               ; preds = %8
  %13 = icmp ne i32 %9, 3
  %14 = zext i1 %13 to i32
  %15 = tail call ptr @_PyCompile_OptimizeAndAssemble(ptr noundef nonnull %6, i32 noundef %14)
  br label %compiler_mod.exit

compiler_mod.exit:                                ; preds = %8, %12
  %.0.i = phi ptr [ null, %8 ], [ %15, %12 ]
  tail call void @_PyCompile_ExitScope(ptr noundef nonnull %6)
  tail call fastcc void @compiler_free(ptr noundef %6)
  br label %16

16:                                               ; preds = %5, %compiler_mod.exit
  %.0 = phi ptr [ %.0.i, %compiler_mod.exit ], [ null, %5 ]
  ret ptr %.0
}